target datalayout = "e-m:e-p270:32:32-p271:32:32-p272:64:64-i64:64-i128:128-f80:128-n8:16:32:64-S128"
target triple = "x86_64-pc-linux-gnu"

%"class.icu_77::number::impl::CompactData" = type <{ %"class.icu_77::number::impl::MultiplierProducer", [168 x ptr], [21 x i8], i8, i8, i8 }>
%"class.icu_77::number::impl::MultiplierProducer" = type { ptr }
%"class.icu_77::UObject" = type { ptr }
%"class.icu_77::UVector" = type { %"class.icu_77::UObject", i32, i32, ptr, ptr, ptr }

@_ZN12_GLOBAL__N_112USE_FALLBACKE = internal global ptr @.str.7, align 8

; Function Attrs: inlinehint mustprogress uwtable
define linkonce_odr noundef ptr @_ZNK6icu_777UVectorixEi(ptr noundef nonnull align 8 dereferenceable(40) %0, i32 noundef %1) #3 comdat align 2 {
  %3 = alloca ptr, align 8
  %4 = alloca i32, align 4
  store ptr %0, ptr %3, align 8, !tbaa !71
  store i32 %1, ptr %4, align 4, !tbaa !14
  %5 = load ptr, ptr %3, align 8
  %6 = load i32, ptr %4, align 4, !tbaa !14
  %7 = call noundef ptr @_ZNK6icu_777UVector9elementAtEi(ptr noundef nonnull align 8 dereferenceable(40) %5, i32 noundef %6)
  ret ptr %7
}

; Function Attrs: inlinehint mustprogress nounwind uwtable
define linkonce_odr noundef i32 @_ZNK6icu_777UVector4sizeEv(ptr noundef nonnull align 8 dereferenceable(40) %0) #2 comdat align 2 {
  %2 = alloca ptr, align 8
  store ptr %0, ptr %2, align 8, !tbaa !71
  %3 = load ptr, ptr %2, align 8
  %4 = getelementptr inbounds nuw %"class.icu_77::UVector", ptr %3, i32 0, i32 1
  %5 = load i32, ptr %4, align 8, !tbaa !78
  ret i32 %5
}

; Function Attrs: mustprogress uwtable
define void @_ZNK6icu_776number4impl11CompactData17getUniquePatternsERNS_7UVectorER10UErrorCode(ptr noundef nonnull align 8 dereferenceable(1375) %0, ptr noundef nonnull align 8 dereferenceable(40) %1, ptr noundef nonnull align 4 dereferenceable(4) %2) #1 align 2 {
  %4 = alloca ptr, align 8
  %5 = alloca ptr, align 8
  %6 = alloca ptr, align 8
  %7 = alloca ptr, align 8
  %8 = alloca ptr, align 8
  %9 = alloca ptr, align 8
  %10 = alloca i32, align 4
  %11 = alloca ptr, align 8
  %12 = alloca i32, align 4
  store ptr %0, ptr %4, align 8, !tbaa !23
  store ptr %1, ptr %5, align 8, !tbaa !71
  store ptr %2, ptr %6, align 8, !tbaa !22
  %13 = load ptr, ptr %4, align 8
  call void @llvm.lifetime.start.p0(i64 8, ptr %7) #14
  %14 = getelementptr inbounds nuw %"class.icu_77::number::impl::CompactData", ptr %13, i32 0, i32 1
  store ptr %14, ptr %7, align 8, !tbaa !73
  call void @llvm.lifetime.start.p0(i64 8, ptr %8) #14
  %15 = load ptr, ptr %7, align 8, !tbaa !73
  %16 = getelementptr inbounds [168 x ptr], ptr %15, i64 0, i64 0
  store ptr %16, ptr %8, align 8, !tbaa !73
  call void @llvm.lifetime.start.p0(i64 8, ptr %9) #14
  %17 = load ptr, ptr %7, align 8, !tbaa !73
  %18 = getelementptr inbounds [168 x ptr], ptr %17, i64 0, i64 0
  %19 = getelementptr inbounds ptr, ptr %18, i64 168
  store ptr %19, ptr %9, align 8, !tbaa !73
  br label %20

20:                                               ; preds = %63, %3
  %21 = load ptr, ptr %8, align 8, !tbaa !73
  %22 = load ptr, ptr %9, align 8, !tbaa !73
  %23 = icmp ne ptr %21, %22
  br i1 %23, label %25, label %24

24:                                               ; preds = %20
  store i32 2, ptr %10, align 4
  call void @llvm.lifetime.end.p0(i64 8, ptr %9) #14
  call void @llvm.lifetime.end.p0(i64 8, ptr %8) #14
  call void @llvm.lifetime.end.p0(i64 8, ptr %7) #14
  br label %66

25:                                               ; preds = %20
  call void @llvm.lifetime.start.p0(i64 8, ptr %11) #14
  %26 = load ptr, ptr %8, align 8, !tbaa !73
  %27 = load ptr, ptr %26, align 8, !tbaa !65
  store ptr %27, ptr %11, align 8, !tbaa !65
  %28 = load ptr, ptr %11, align 8, !tbaa !65
  %29 = icmp eq ptr %28, null
  br i1 %29, label %34, label %30

30:                                               ; preds = %25
  %31 = load ptr, ptr %11, align 8, !tbaa !65
  %32 = load ptr, ptr @_ZN12_GLOBAL__N_112USE_FALLBACKE, align 8, !tbaa !65
  %33 = icmp eq ptr %31, %32
  br i1 %33, label %34, label %35

34:                                               ; preds = %30, %25
  store i32 3, ptr %10, align 4
  br label %62

35:                                               ; preds = %30
  call void @llvm.lifetime.start.p0(i64 4, ptr %12) #14
  %36 = load ptr, ptr %5, align 8, !tbaa !71
  %37 = call noundef i32 @_ZNK6icu_777UVector4sizeEv(ptr noundef nonnull align 8 dereferenceable(40) %36)
  %38 = sub nsw i32 %37, 1
  store i32 %38, ptr %12, align 4, !tbaa !14
  br label %39

39:                                               ; preds = %52, %35
  %40 = load i32, ptr %12, align 4, !tbaa !14
  %41 = icmp sge i32 %40, 0
  br i1 %41, label %43, label %42

42:                                               ; preds = %39
  store i32 4, ptr %10, align 4
  br label %55

43:                                               ; preds = %39
  %44 = load ptr, ptr %11, align 8, !tbaa !65
  %45 = load ptr, ptr %5, align 8, !tbaa !71
  %46 = load i32, ptr %12, align 4, !tbaa !14
  %47 = call noundef ptr @_ZNK6icu_777UVectorixEi(ptr noundef nonnull align 8 dereferenceable(40) %45, i32 noundef %46)
  %48 = call i32 @u_strcmp_77(ptr noundef %44, ptr noundef %47)
  %49 = icmp eq i32 %48, 0
  br i1 %49, label %50, label %51

50:                                               ; preds = %43
  store i32 7, ptr %10, align 4
  br label %55

51:                                               ; preds = %43
  br label %52

52:                                               ; preds = %51
  %53 = load i32, ptr %12, align 4, !tbaa !14
  %54 = add nsw i32 %53, -1
  store i32 %54, ptr %12, align 4, !tbaa !14
  br label %39, !llvm.loop !76

55:                                               ; preds = %50, %42
  call void @llvm.lifetime.end.p0(i64 4, ptr %12) #14
  %56 = load i32, ptr %10, align 4
  switch i32 %56, label %62 [
    i32 4, label %57
    i32 7, label %61
  ]

57:                                               ; preds = %55
  %58 = load ptr, ptr %5, align 8, !tbaa !71
  %59 = load ptr, ptr %11, align 8, !tbaa !65
  %60 = load ptr, ptr %6, align 8, !tbaa !22
  call void @_ZN6icu_777UVector10addElementEPvR10UErrorCode(ptr noundef nonnull align 8 dereferenceable(40) %58, ptr noundef %59, ptr noundef nonnull align 4 dereferenceable(4) %60)
  br label %61

61:                                               ; preds = %57, %55
  store i32 3, ptr %10, align 4
  br label %62

62:                                               ; preds = %61, %55, %34
  call void @llvm.lifetime.end.p0(i64 8, ptr %11) #14
  br label %63

63:                                               ; preds = %62
  %64 = load ptr, ptr %8, align 8, !tbaa !73
  %65 = getelementptr inbounds nuw ptr, ptr %64, i32 1
  store ptr %65, ptr %8, align 8, !tbaa !73
  br label %20

66:                                               ; preds = %24
  ret void
}