; Function Attrs: mustprogress uwtable
define void @_ZNK6icu_776number4impl11CompactData17getUniquePatternsERNS_7UVectorER10UErrorCode(ptr noundef nonnull readonly align 8 captures(none) dereferenceable(1375) %0, ptr noundef nonnull align 8 dereferenceable(40) %1, ptr noundef nonnull align 4 dereferenceable(4) %2) local_unnamed_addr #1 align 2 {
  %4 = getelementptr inbounds nuw i8, ptr %1, i64 8
  br label %6

5:                                                ; preds = %.loopexit
  ret void

6:                                                ; preds = %3, %.loopexit
  %.018.idx24 = phi i64 [ 8, %3 ], [ %.018.add, %.loopexit ]
  %.018.ptr = getelementptr inbounds nuw i8, ptr %0, i64 %.018.idx24
  %7 = load ptr, ptr %.018.ptr, align 8, !tbaa !32
  %8 = icmp eq ptr %7, null
  %9 = icmp eq ptr %7, @.str.7
  %or.cond = or i1 %8, %9
  br i1 %or.cond, label %.loopexit, label %10

10:                                               ; preds = %6
  %11 = load i32, ptr %4, align 8, !tbaa !34
  br label %12

12:                                               ; preds = %14, %10
  %.0.in = phi i32 [ %11, %10 ], [ %.0, %14 ]
  %13 = icmp sgt i32 %.0.in, 0
  br i1 %13, label %14, label %18

14:                                               ; preds = %12
  %.0 = add nsw i32 %.0.in, -1
  %15 = tail call noundef ptr @_ZNK6icu_777UVector9elementAtEi(ptr noundef nonnull align 8 dereferenceable(40) %1, i32 noundef %.0)
  %16 = tail call i32 @u_strcmp_77(ptr noundef nonnull %7, ptr noundef %15)
  %17 = icmp eq i32 %16, 0
  br i1 %17, label %.loopexit, label %12, !llvm.loop !37

18:                                               ; preds = %12
  tail call void @_ZN6icu_777UVector10addElementEPvR10UErrorCode(ptr noundef nonnull align 8 dereferenceable(40) %1, ptr noundef nonnull %7, ptr noundef nonnull align 4 dereferenceable(4) %2)
  br label %.loopexit

.loopexit:                                        ; preds = %14, %18, %6
  %.018.add = add nuw nsw i64 %.018.idx24, 8
  %.not = icmp eq i64 %.018.add, 1352
  br i1 %.not, label %5, label %6
}